target datalayout = "e-m:e-p270:32:32-p271:32:32-p272:64:64-i64:64-i128:128-f80:128-n8:16:32:64-S128"
target triple = "x86_64-pc-linux-gnu"

%struct.llhttp__internal_s = type { i32, ptr, ptr, i32, ptr, ptr, ptr, ptr, i64, i8, i8, i8, i8, i8, i16, i8, i8, i16, i16, i8, ptr }

; Function Attrs: nounwind uwtable
define i32 @llhttp__internal_execute(ptr noundef %0, ptr noundef %1, ptr noundef %2) #0 {
  %4 = alloca i32, align 4
  %5 = alloca ptr, align 8
  %6 = alloca ptr, align 8
  %7 = alloca ptr, align 8
  %8 = alloca i32, align 4
  %9 = alloca i32, align 4
  %10 = alloca i32, align 4
  store ptr %0, ptr %5, align 8, !tbaa !3
  store ptr %1, ptr %6, align 8, !tbaa !8
  store ptr %2, ptr %7, align 8, !tbaa !8
  call void @llvm.lifetime.start.p0(i64 4, ptr %8) #6
  %11 = load ptr, ptr %5, align 8, !tbaa !3
  %12 = getelementptr inbounds nuw %struct.llhttp__internal_s, ptr %11, i32 0, i32 3
  %13 = load i32, ptr %12, align 8, !tbaa !28
  %14 = icmp ne i32 %13, 0
  br i1 %14, label %15, label %19

15:                                               ; preds = %3
  %16 = load ptr, ptr %5, align 8, !tbaa !3
  %17 = getelementptr inbounds nuw %struct.llhttp__internal_s, ptr %16, i32 0, i32 3
  %18 = load i32, ptr %17, align 8, !tbaa !28
  store i32 %18, ptr %4, align 4
  store i32 1, ptr %9, align 4
  br label %74

19:                                               ; preds = %3
  %20 = load ptr, ptr %5, align 8, !tbaa !3
  %21 = getelementptr inbounds nuw %struct.llhttp__internal_s, ptr %20, i32 0, i32 1
  %22 = load ptr, ptr %21, align 8, !tbaa !29
  %23 = icmp ne ptr %22, null
  br i1 %23, label %24, label %28

24:                                               ; preds = %19
  %25 = load ptr, ptr %6, align 8, !tbaa !8
  %26 = load ptr, ptr %5, align 8, !tbaa !3
  %27 = getelementptr inbounds nuw %struct.llhttp__internal_s, ptr %26, i32 0, i32 1
  store ptr %25, ptr %27, align 8, !tbaa !29
  br label %28

28:                                               ; preds = %24, %19
  %29 = load ptr, ptr %5, align 8, !tbaa !3
  %30 = load ptr, ptr %6, align 8, !tbaa !8
  %31 = load ptr, ptr %7, align 8, !tbaa !8
  %32 = call i32 @llhttp__internal__run(ptr noundef %29, ptr noundef %30, ptr noundef %31)
  store i32 %32, ptr %8, align 4, !tbaa !17
  %33 = load i32, ptr %8, align 4, !tbaa !17
  %34 = icmp eq i32 %33, 0
  br i1 %34, label %35, label %39

35:                                               ; preds = %28
  %36 = load ptr, ptr %5, align 8, !tbaa !3
  %37 = getelementptr inbounds nuw %struct.llhttp__internal_s, ptr %36, i32 0, i32 3
  %38 = load i32, ptr %37, align 8, !tbaa !28
  store i32 %38, ptr %4, align 4
  store i32 1, ptr %9, align 4
  br label %74

39:                                               ; preds = %28
  %40 = load i32, ptr %8, align 4, !tbaa !17
  %41 = zext i32 %40 to i64
  %42 = inttoptr i64 %41 to ptr
  %43 = load ptr, ptr %5, align 8, !tbaa !3
  %44 = getelementptr inbounds nuw %struct.llhttp__internal_s, ptr %43, i32 0, i32 7
  store ptr %42, ptr %44, align 8, !tbaa !27
  %45 = load ptr, ptr %5, align 8, !tbaa !3
  %46 = getelementptr inbounds nuw %struct.llhttp__internal_s, ptr %45, i32 0, i32 1
  %47 = load ptr, ptr %46, align 8, !tbaa !29
  %48 = icmp ne ptr %47, null
  br i1 %48, label %49, label %73

49:                                               ; preds = %39
  call void @llvm.lifetime.start.p0(i64 4, ptr %10) #6
  %50 = load ptr, ptr %5, align 8, !tbaa !3
  %51 = getelementptr inbounds nuw %struct.llhttp__internal_s, ptr %50, i32 0, i32 2
  %52 = load ptr, ptr %51, align 8, !tbaa !30
  %53 = load ptr, ptr %5, align 8, !tbaa !3
  %54 = load ptr, ptr %5, align 8, !tbaa !3
  %55 = getelementptr inbounds nuw %struct.llhttp__internal_s, ptr %54, i32 0, i32 1
  %56 = load ptr, ptr %55, align 8, !tbaa !29
  %57 = load ptr, ptr %7, align 8, !tbaa !8
  %58 = call i32 %52(ptr noundef %53, ptr noundef %56, ptr noundef %57)
  store i32 %58, ptr %10, align 4, !tbaa !17
  %59 = load i32, ptr %10, align 4, !tbaa !17
  %60 = icmp ne i32 %59, 0
  br i1 %60, label %61, label %69

61:                                               ; preds = %49
  %62 = load i32, ptr %10, align 4, !tbaa !17
  %63 = load ptr, ptr %5, align 8, !tbaa !3
  %64 = getelementptr inbounds nuw %struct.llhttp__internal_s, ptr %63, i32 0, i32 3
  store i32 %62, ptr %64, align 8, !tbaa !28
  %65 = load ptr, ptr %7, align 8, !tbaa !8
  %66 = load ptr, ptr %5, align 8, !tbaa !3
  %67 = getelementptr inbounds nuw %struct.llhttp__internal_s, ptr %66, i32 0, i32 5
  store ptr %65, ptr %67, align 8, !tbaa !31
  %68 = load i32, ptr %10, align 4, !tbaa !17
  store i32 %68, ptr %4, align 4
  store i32 1, ptr %9, align 4
  br label %70

69:                                               ; preds = %49
  store i32 0, ptr %9, align 4
  br label %70

70:                                               ; preds = %69, %61
  call void @llvm.lifetime.end.p0(i64 4, ptr %10) #6
  %71 = load i32, ptr %9, align 4
  switch i32 %71, label %74 [
    i32 0, label %72
  ]

72:                                               ; preds = %70
  br label %73

73:                                               ; preds = %72, %39
  store i32 0, ptr %4, align 4
  store i32 1, ptr %9, align 4
  br label %74

74:                                               ; preds = %73, %70, %35, %15
  call void @llvm.lifetime.end.p0(i64 4, ptr %8) #6
  %75 = load i32, ptr %4, align 4
  ret i32 %75
}