; Function Attrs: nounwind uwtable
define i32 @llhttp__internal_execute(ptr noundef %0, ptr noundef %1, ptr noundef %2) local_unnamed_addr #4 {
  %4 = getelementptr inbounds nuw i8, ptr %0, i64 24
  %5 = load i32, ptr %4, align 8, !tbaa !24
  %.not = icmp eq i32 %5, 0
  br i1 %.not, label %6, label %.critedge

6:                                                ; preds = %3
  %7 = getelementptr inbounds nuw i8, ptr %0, i64 8
  %8 = load ptr, ptr %7, align 8, !tbaa !25
  %.not29 = icmp eq ptr %8, null
  br i1 %.not29, label %10, label %9

9:                                                ; preds = %6
  store ptr %1, ptr %7, align 8, !tbaa !25
  br label %10

10:                                               ; preds = %9, %6
  %11 = tail call fastcc i32 @llhttp__internal__run(ptr noundef nonnull %0, ptr noundef %1, ptr noundef %2)
  %12 = icmp eq i32 %11, 0
  br i1 %12, label %13, label %15

13:                                               ; preds = %10
  %14 = load i32, ptr %4, align 8, !tbaa !24
  br label %.critedge

15:                                               ; preds = %10
  %16 = zext nneg i32 %11 to i64
  %17 = inttoptr i64 %16 to ptr
  %18 = getelementptr inbounds nuw i8, ptr %0, i64 56
  store ptr %17, ptr %18, align 8, !tbaa !23
  %19 = load ptr, ptr %7, align 8, !tbaa !25
  %.not30 = icmp eq ptr %19, null
  br i1 %.not30, label %.critedge, label %20

20:                                               ; preds = %15
  %21 = getelementptr inbounds nuw i8, ptr %0, i64 16
  %22 = load ptr, ptr %21, align 8, !tbaa !26
  %23 = tail call i32 %22(ptr noundef nonnull %0, ptr noundef nonnull %19, ptr noundef %2) #9
  %.not31 = icmp eq i32 %23, 0
  br i1 %.not31, label %.critedge, label %24

24:                                               ; preds = %20
  store i32 %23, ptr %4, align 8, !tbaa !24
  %25 = getelementptr inbounds nuw i8, ptr %0, i64 40
  store ptr %2, ptr %25, align 8, !tbaa !27
  br label %.critedge

.critedge:                                        ; preds = %15, %20, %24, %3, %13
  %.0 = phi i32 [ %14, %13 ], [ %23, %24 ], [ %5, %3 ], [ 0, %20 ], [ 0, %15 ]
  ret i32 %.0
}